	.text
	.file	"ub_signed_overflow.c"
	.globl	check_overflow                  # -- Begin function check_overflow
	.p2align	4, 0x90
	.type	check_overflow,@function
check_overflow:                         # @check_overflow
	.cfi_startproc
# %bb.0:
	pushq	%rbp
	.cfi_def_cfa_offset 16
	.cfi_offset %rbp, -16
	movq	%rsp, %rbp
	.cfi_def_cfa_register %rbp
	movl	%edi, -8(%rbp)
	movl	-8(%rbp), %eax
	addl	$1, %eax
	cmpl	-8(%rbp), %eax
	jle	.LBB0_2
# %bb.1:
	movl	$1, -4(%rbp)
	jmp	.LBB0_3
.LBB0_2:
	movl	$0, -4(%rbp)
.LBB0_3:
	movl	-4(%rbp), %eax
	popq	%rbp
	.cfi_def_cfa %rsp, 8
	retq
.Lfunc_end0:
	.size	check_overflow, .Lfunc_end0-check_overflow
	.cfi_endproc
                                        # -- End function
	.globl	main                            # -- Begin function main
	.p2align	4, 0x90
	.type	main,@function
main:                                   # @main
	.cfi_startproc
# %bb.0:
	pushq	%rbp
	.cfi_def_cfa_offset 16
	.cfi_offset %rbp, -16
	movq	%rsp, %rbp
	.cfi_def_cfa_register %rbp
	subq	$16, %rsp
	movl	$0, -4(%rbp)
	movl	$2147483647, %edi               # imm = 0x7FFFFFFF
	callq	check_overflow
	movl	%eax, %esi
	leaq	.L.str(%rip), %rdi
	movb	$0, %al
	callq	printf@PLT
	xorl	%eax, %eax
	addq	$16, %rsp
	popq	%rbp
	.cfi_def_cfa %rsp, 8
	retq
.Lfunc_end1:
	.size	main, .Lfunc_end1-main
	.cfi_endproc
                                        # -- End function
	.type	.L.str,@object                  # @.str
	.section	.rodata.str1.1,"aMS",@progbits,1
.L.str:
	.asciz	"check_overflow(INT_MAX) = %d\n"
	.size	.L.str, 30

	.ident	"Ubuntu clang version 18.1.3 (1ubuntu1)"
	.section	".note.GNU-stack","",@progbits
	.addrsig
	.addrsig_sym check_overflow
	.addrsig_sym printf
